target datalayout = "e-m:e-p270:32:32-p271:32:32-p272:64:64-i64:64-i128:128-f80:128-n8:16:32:64-S128"
target triple = "x86_64-pc-linux-gnu"

%struct.slurm_conf_t = type { i64, ptr, i16, ptr, ptr, ptr, ptr, ptr, i16, ptr, ptr, ptr, ptr, ptr, ptr, ptr, i16, ptr, ptr, ptr, ptr, i16, ptr, ptr, ptr, i64, ptr, ptr, ptr, ptr, i16, ptr, ptr, i16, i32, ptr, i32, ptr, i32, i32, ptr, ptr, i64, i64, ptr, i16, i16, ptr, i32, i32, ptr, i32, ptr, i32, i16, i16, i16, ptr, i16, i16, ptr, ptr, i32, i16, i16, ptr, i32, i16, ptr, ptr, ptr, ptr, i16, ptr, ptr, ptr, ptr, i32, ptr, ptr, ptr, ptr, i16, i16, ptr, i32, i32, i32, i16, i16, ptr, ptr, i16, ptr, ptr, i32, i32, i32, i32, i32, i64, i32, i32, i16, ptr, ptr, i32, ptr, ptr, ptr, i16, i32, ptr, ptr, i16, ptr, ptr, i32, i16, ptr, ptr, ptr, ptr, i32, i32, i16, i16, i32, ptr, i16, ptr, i32, i32, i32, i32, i32, i32, ptr, i16, ptr, ptr, i32, i16, ptr, i32, i16, i16, ptr, ptr, ptr, i16, ptr, ptr, ptr, ptr, i16, i16, ptr, i16, ptr, i16, ptr, i16, ptr, i16, ptr, ptr, ptr, ptr, i16, ptr, ptr, ptr, i32, ptr, i32, ptr, ptr, i16, ptr, ptr, i32, i16, ptr, ptr, i16, i16, ptr, i16, ptr, ptr, ptr, i32, ptr, i16, i16, ptr, ptr, ptr, ptr, ptr, ptr, ptr, ptr, i16, i32, i16, ptr, ptr, ptr, ptr, i32, ptr, ptr, ptr, i16, ptr, ptr, ptr, i16, ptr, i16, ptr, i16, i16, ptr }
%struct.linger = type { i32, i32 }

@slurm_conf = external global %struct.slurm_conf_t, align 8
@.str = private unnamed_addr constant [39 x i8] c"Unable to set linger socket option: %m\00", align 1
@.str.1 = private unnamed_addr constant [42 x i8] c"Unable to set keepalive socket option: %m\00", align 1
@.str.2 = private unnamed_addr constant [37 x i8] c"Unable to set keepalive interval: %m\00", align 1
@.str.3 = private unnamed_addr constant [35 x i8] c"Unable to set keepalive probes: %m\00", align 1
@.str.4 = private unnamed_addr constant [40 x i8] c"Unable to set keepalive socket time: %m\00", align 1

; Function Attrs: nounwind uwtable
define dso_local void @net_set_keep_alive(i32 noundef %0) #0 {
  %2 = alloca i32, align 4
  %3 = alloca i32, align 4
  %4 = alloca i32, align 4
  %5 = alloca %struct.linger, align 4
  %6 = alloca i32, align 4
  store i32 %0, ptr %2, align 4
  call void @llvm.lifetime.start.p0(i64 4, ptr %3) #9
  call void @llvm.lifetime.start.p0(i64 4, ptr %4) #9
  call void @llvm.lifetime.start.p0(i64 8, ptr %5) #9
  %7 = load i32, ptr getelementptr inbounds nuw (%struct.slurm_conf_t, ptr @slurm_conf, i32 0, i32 87), align 8
  %8 = icmp eq i32 %7, -2
  br i1 %8, label %9, label %10

9:                                                ; preds = %1
  store i32 1, ptr %6, align 4
  br label %61

10:                                               ; preds = %1
  store i32 8, ptr %4, align 4
  %11 = getelementptr inbounds nuw %struct.linger, ptr %5, i32 0, i32 0
  store i32 1, ptr %11, align 4
  %12 = load i32, ptr getelementptr inbounds nuw (%struct.slurm_conf_t, ptr @slurm_conf, i32 0, i32 87), align 8
  %13 = getelementptr inbounds nuw %struct.linger, ptr %5, i32 0, i32 1
  store i32 %12, ptr %13, align 4
  %14 = load i32, ptr %2, align 4
  %15 = load i32, ptr %4, align 4
  %16 = call i32 @setsockopt(i32 noundef %14, i32 noundef 1, i32 noundef 13, ptr noundef %5, i32 noundef %15) #9
  %17 = icmp slt i32 %16, 0
  br i1 %17, label %18, label %20

18:                                               ; preds = %10
  %19 = call i32 (ptr, ...) @error(ptr noundef @.str)
  br label %20

20:                                               ; preds = %18, %10
  store i32 4, ptr %4, align 4
  %21 = load i32, ptr getelementptr inbounds nuw (%struct.slurm_conf_t, ptr @slurm_conf, i32 0, i32 87), align 8
  store i32 %21, ptr %3, align 4
  %22 = load i32, ptr %2, align 4
  %23 = load i32, ptr %4, align 4
  %24 = call i32 @setsockopt(i32 noundef %22, i32 noundef 1, i32 noundef 9, ptr noundef %3, i32 noundef %23) #9
  %25 = icmp slt i32 %24, 0
  br i1 %25, label %26, label %28

26:                                               ; preds = %20
  %27 = call i32 (ptr, ...) @error(ptr noundef @.str.1)
  store i32 1, ptr %6, align 4
  br label %61

28:                                               ; preds = %20
  %29 = load i32, ptr getelementptr inbounds nuw (%struct.slurm_conf_t, ptr @slurm_conf, i32 0, i32 85), align 8
  %30 = icmp ne i32 %29, -2
  br i1 %30, label %31, label %40

31:                                               ; preds = %28
  %32 = load i32, ptr getelementptr inbounds nuw (%struct.slurm_conf_t, ptr @slurm_conf, i32 0, i32 85), align 8
  store i32 %32, ptr %3, align 4
  %33 = load i32, ptr %2, align 4
  %34 = load i32, ptr %4, align 4
  %35 = call i32 @setsockopt(i32 noundef %33, i32 noundef 6, i32 noundef 5, ptr noundef %3, i32 noundef %34) #9
  %36 = icmp slt i32 %35, 0
  br i1 %36, label %37, label %39

37:                                               ; preds = %31
  %38 = call i32 (ptr, ...) @error(ptr noundef @.str.2)
  store i32 1, ptr %6, align 4
  br label %61

39:                                               ; preds = %31
  br label %40

40:                                               ; preds = %39, %28
  %41 = load i32, ptr getelementptr inbounds nuw (%struct.slurm_conf_t, ptr @slurm_conf, i32 0, i32 86), align 4
  %42 = icmp ne i32 %41, -2
  br i1 %42, label %43, label %52

43:                                               ; preds = %40
  %44 = load i32, ptr getelementptr inbounds nuw (%struct.slurm_conf_t, ptr @slurm_conf, i32 0, i32 86), align 4
  store i32 %44, ptr %3, align 4
  %45 = load i32, ptr %2, align 4
  %46 = load i32, ptr %4, align 4
  %47 = call i32 @setsockopt(i32 noundef %45, i32 noundef 6, i32 noundef 6, ptr noundef %3, i32 noundef %46) #9
  %48 = icmp slt i32 %47, 0
  br i1 %48, label %49, label %51

49:                                               ; preds = %43
  %50 = call i32 (ptr, ...) @error(ptr noundef @.str.3)
  store i32 1, ptr %6, align 4
  br label %61

51:                                               ; preds = %43
  br label %52

52:                                               ; preds = %51, %40
  %53 = load i32, ptr getelementptr inbounds nuw (%struct.slurm_conf_t, ptr @slurm_conf, i32 0, i32 87), align 8
  store i32 %53, ptr %3, align 4
  %54 = load i32, ptr %2, align 4
  %55 = load i32, ptr %4, align 4
  %56 = call i32 @setsockopt(i32 noundef %54, i32 noundef 6, i32 noundef 4, ptr noundef %3, i32 noundef %55) #9
  %57 = icmp slt i32 %56, 0
  br i1 %57, label %58, label %60

58:                                               ; preds = %52
  %59 = call i32 (ptr, ...) @error(ptr noundef @.str.4)
  store i32 1, ptr %6, align 4
  br label %61

60:                                               ; preds = %52
  store i32 0, ptr %6, align 4
  br label %61

61:                                               ; preds = %60, %58, %49, %37, %26, %9
  call void @llvm.lifetime.end.p0(i64 8, ptr %5) #9
  call void @llvm.lifetime.end.p0(i64 4, ptr %4) #9
  call void @llvm.lifetime.end.p0(i64 4, ptr %3) #9
  %62 = load i32, ptr %6, align 4
  switch i32 %62, label %64 [
    i32 0, label %63
    i32 1, label %63
  ]

63:                                               ; preds = %61, %61
  ret void

64:                                               ; preds = %61
  unreachable
}