; Function Attrs: nounwind uwtable
define dso_local void @net_set_keep_alive(i32 noundef %0) local_unnamed_addr #0 {
  %2 = alloca i32, align 4
  %3 = alloca %struct.linger, align 4
  call void @llvm.lifetime.start.p0(i64 4, ptr nonnull %2) #11
  call void @llvm.lifetime.start.p0(i64 8, ptr nonnull %3) #11
  %4 = load i32, ptr getelementptr inbounds nuw (i8, ptr @slurm_conf, i64 600), align 8
  %5 = icmp eq i32 %4, -2
  br i1 %5, label %31, label %6

6:                                                ; preds = %1
  store i32 1, ptr %3, align 4
  %7 = getelementptr inbounds nuw i8, ptr %3, i64 4
  store i32 %4, ptr %7, align 4
  %8 = call i32 @setsockopt(i32 noundef %0, i32 noundef 1, i32 noundef 13, ptr noundef nonnull %3, i32 noundef 8) #11
  %9 = icmp slt i32 %8, 0
  br i1 %9, label %10, label %12

10:                                               ; preds = %6
  %11 = call i32 (ptr, ...) @error(ptr noundef nonnull @.str) #11
  br label %12

12:                                               ; preds = %10, %6
  %13 = load i32, ptr getelementptr inbounds nuw (i8, ptr @slurm_conf, i64 600), align 8
  store i32 %13, ptr %2, align 4
  %14 = call i32 @setsockopt(i32 noundef %0, i32 noundef 1, i32 noundef 9, ptr noundef nonnull %2, i32 noundef 4) #11
  %15 = icmp slt i32 %14, 0
  br i1 %15, label %.sink.split, label %16

16:                                               ; preds = %12
  %17 = load i32, ptr getelementptr inbounds nuw (i8, ptr @slurm_conf, i64 592), align 8
  %.not = icmp eq i32 %17, -2
  br i1 %.not, label %21, label %18

18:                                               ; preds = %16
  store i32 %17, ptr %2, align 4
  %19 = call i32 @setsockopt(i32 noundef %0, i32 noundef 6, i32 noundef 5, ptr noundef nonnull %2, i32 noundef 4) #11
  %20 = icmp slt i32 %19, 0
  br i1 %20, label %.sink.split, label %21

21:                                               ; preds = %18, %16
  %22 = load i32, ptr getelementptr inbounds nuw (i8, ptr @slurm_conf, i64 596), align 4
  %.not11 = icmp eq i32 %22, -2
  br i1 %.not11, label %26, label %23

23:                                               ; preds = %21
  store i32 %22, ptr %2, align 4
  %24 = call i32 @setsockopt(i32 noundef %0, i32 noundef 6, i32 noundef 6, ptr noundef nonnull %2, i32 noundef 4) #11
  %25 = icmp slt i32 %24, 0
  br i1 %25, label %.sink.split, label %26

26:                                               ; preds = %23, %21
  %27 = load i32, ptr getelementptr inbounds nuw (i8, ptr @slurm_conf, i64 600), align 8
  store i32 %27, ptr %2, align 4
  %28 = call i32 @setsockopt(i32 noundef %0, i32 noundef 6, i32 noundef 4, ptr noundef nonnull %2, i32 noundef 4) #11
  %29 = icmp slt i32 %28, 0
  br i1 %29, label %.sink.split, label %31

.sink.split:                                      ; preds = %26, %23, %18, %12
  %.str.4.sink = phi ptr [ @.str.1, %12 ], [ @.str.2, %18 ], [ @.str.3, %23 ], [ @.str.4, %26 ]
  %30 = call i32 (ptr, ...) @error(ptr noundef nonnull %.str.4.sink) #11
  br label %31

31:                                               ; preds = %.sink.split, %26, %1
  call void @llvm.lifetime.end.p0(i64 8, ptr nonnull %3) #11
  call void @llvm.lifetime.end.p0(i64 4, ptr nonnull %2) #11
  ret void
}